; Function Attrs: mustprogress uwtable
define internal fastcc void @_ZN12_GLOBAL__N_121xilinx_dsp_cascade_pm5paramEPN5Yosys5RTLIL4CellENS2_8IdStringE(ptr dead_on_unwind noalias nonnull writable align 8 %0, ptr noundef nonnull %1, ptr noundef nonnull %2) unnamed_addr #5 align 2 personality ptr @__gxx_personality_v0 {
  %4 = invoke noundef nonnull align 8 dereferenceable(40) ptr @_ZNK5Yosys5RTLIL4Cell8getParamERKNS0_8IdStringE(ptr noundef nonnull align 8 dereferenceable(192) %1, ptr noundef nonnull align 4 dereferenceable(4) %2)
          to label %5 unwind label %7

5:                                                ; preds = %3
  invoke void @_ZN5Yosys5RTLIL5ConstC1ERKS1_(ptr noundef nonnull align 8 dereferenceable(40) %0, ptr noundef nonnull align 8 dereferenceable(40) %4)
          to label %6 unwind label %7

6:                                                ; preds = %5
  ret void

7:                                                ; preds = %5, %3
  %8 = landingpad { ptr, i32 }
          catch ptr @_ZTISt12out_of_range
  %9 = extractvalue { ptr, i32 } %8, 1
  %10 = tail call i32 @llvm.eh.typeid.for.p0(ptr nonnull @_ZTISt12out_of_range) #28
  %11 = icmp eq i32 %9, %10
  br i1 %11, label %12, label %20

12:                                               ; preds = %7
  %13 = extractvalue { ptr, i32 } %8, 0
  %14 = tail call ptr @__cxa_begin_catch(ptr %13) #28
  %15 = invoke noundef ptr @_ZNK5Yosys5RTLIL8IdString5c_strEv(ptr noundef nonnull align 4 dereferenceable(4) %2)
          to label %16 unwind label %18

16:                                               ; preds = %12
  invoke void (ptr, ...) @_ZN5Yosys9log_errorEPKcz(ptr noundef nonnull @.str.126, ptr noundef %15) #30
          to label %17 unwind label %18

17:                                               ; preds = %16
  unreachable

18:                                               ; preds = %16, %12
  %19 = landingpad { ptr, i32 }
          cleanup
  invoke void @__cxa_end_catch()
          to label %20 unwind label %21

20:                                               ; preds = %18, %7
  %.merged = phi { ptr, i32 } [ %8, %7 ], [ %19, %18 ]
  resume { ptr, i32 } %.merged

21:                                               ; preds = %18
  %22 = landingpad { ptr, i32 }
          catch ptr null
  %23 = extractvalue { ptr, i32 } %22, 0
  tail call void @__clang_call_terminate(ptr %23) #32
  unreachable
}